target datalayout = "e-m:e-p270:32:32-p271:32:32-p272:64:64-i64:64-i128:128-f80:128-n8:16:32:64-S128"
target triple = "x86_64-pc-linux-gnu"

; Function Attrs: nounwind uwtable
define hidden void @av1_highbd_dr_prediction_z1_c(ptr noundef %0, i64 noundef %1, i32 noundef %2, i32 noundef %3, ptr noundef %4, ptr noundef %5, i32 noundef %6, i32 noundef %7, i32 noundef %8, i32 noundef %9) #0 {
  %11 = alloca ptr, align 8
  %12 = alloca i64, align 8
  %13 = alloca i32, align 4
  %14 = alloca i32, align 4
  %15 = alloca ptr, align 8
  %16 = alloca ptr, align 8
  %17 = alloca i32, align 4
  %18 = alloca i32, align 4
  %19 = alloca i32, align 4
  %20 = alloca i32, align 4
  %21 = alloca i32, align 4
  %22 = alloca i32, align 4
  %23 = alloca i32, align 4
  %24 = alloca i32, align 4
  %25 = alloca i32, align 4
  %26 = alloca i32, align 4
  %27 = alloca i32, align 4
  %28 = alloca i32, align 4
  %29 = alloca i32, align 4
  %30 = alloca i32, align 4
  store ptr %0, ptr %11, align 8
  store i64 %1, ptr %12, align 8
  store i32 %2, ptr %13, align 4
  store i32 %3, ptr %14, align 4
  store ptr %4, ptr %15, align 8
  store ptr %5, ptr %16, align 8
  store i32 %6, ptr %17, align 4
  store i32 %7, ptr %18, align 4
  store i32 %8, ptr %19, align 4
  store i32 %9, ptr %20, align 4
  %31 = load i32, ptr %13, align 4
  %32 = load i32, ptr %14, align 4
  %33 = add nsw i32 %31, %32
  %34 = sub nsw i32 %33, 1
  %35 = load i32, ptr %17, align 4
  %36 = shl i32 %34, %35
  store i32 %36, ptr %27, align 4
  %37 = load i32, ptr %17, align 4
  %38 = sub nsw i32 6, %37
  store i32 %38, ptr %28, align 4
  %39 = load i32, ptr %17, align 4
  %40 = shl i32 1, %39
  store i32 %40, ptr %29, align 4
  %41 = load i32, ptr %18, align 4
  store i32 %41, ptr %23, align 4
  store i32 0, ptr %21, align 4
  br label %42

42:                                               ; preds = %137, %10
  %43 = load i32, ptr %21, align 4
  %44 = load i32, ptr %14, align 4
  %45 = icmp slt i32 %43, %44
  br i1 %45, label %46, label %146

46:                                               ; preds = %42
  %47 = load i32, ptr %23, align 4
  %48 = load i32, ptr %28, align 4
  %49 = ashr i32 %47, %48
  store i32 %49, ptr %24, align 4
  %50 = load i32, ptr %23, align 4
  %51 = load i32, ptr %17, align 4
  %52 = shl i32 %50, %51
  %53 = and i32 %52, 63
  %54 = ashr i32 %53, 1
  store i32 %54, ptr %25, align 4
  %55 = load i32, ptr %24, align 4
  %56 = load i32, ptr %27, align 4
  %57 = icmp sge i32 %55, %56
  br i1 %57, label %58, label %82

58:                                               ; preds = %46
  %59 = load i32, ptr %21, align 4
  store i32 %59, ptr %30, align 4
  br label %60

60:                                               ; preds = %78, %58
  %61 = load i32, ptr %30, align 4
  %62 = load i32, ptr %14, align 4
  %63 = icmp slt i32 %61, %62
  br i1 %63, label %64, label %81

64:                                               ; preds = %60
  %65 = load ptr, ptr %11, align 8
  %66 = load ptr, ptr %15, align 8
  %67 = load i32, ptr %27, align 4
  %68 = sext i32 %67 to i64
  %69 = getelementptr inbounds i16, ptr %66, i64 %68
  %70 = load i16, ptr %69, align 2
  %71 = zext i16 %70 to i32
  %72 = load i32, ptr %13, align 4
  %73 = sext i32 %72 to i64
  %74 = call ptr @aom_memset16(ptr noundef %65, i32 noundef %71, i64 noundef %73)
  %75 = load i64, ptr %12, align 8
  %76 = load ptr, ptr %11, align 8
  %77 = getelementptr inbounds i16, ptr %76, i64 %75
  store ptr %77, ptr %11, align 8
  br label %78

78:                                               ; preds = %64
  %79 = load i32, ptr %30, align 4
  %80 = add nsw i32 %79, 1
  store i32 %80, ptr %30, align 4
  br label %60, !llvm.loop !13

81:                                               ; preds = %60
  br label %146

82:                                               ; preds = %46
  store i32 0, ptr %22, align 4
  br label %83

83:                                               ; preds = %130, %82
  %84 = load i32, ptr %22, align 4
  %85 = load i32, ptr %13, align 4
  %86 = icmp slt i32 %84, %85
  br i1 %86, label %87, label %136

87:                                               ; preds = %83
  %88 = load i32, ptr %24, align 4
  %89 = load i32, ptr %27, align 4
  %90 = icmp slt i32 %88, %89
  br i1 %90, label %91, label %119

91:                                               ; preds = %87
  %92 = load ptr, ptr %15, align 8
  %93 = load i32, ptr %24, align 4
  %94 = sext i32 %93 to i64
  %95 = getelementptr inbounds i16, ptr %92, i64 %94
  %96 = load i16, ptr %95, align 2
  %97 = zext i16 %96 to i32
  %98 = load i32, ptr %25, align 4
  %99 = sub nsw i32 32, %98
  %100 = mul nsw i32 %97, %99
  %101 = load ptr, ptr %15, align 8
  %102 = load i32, ptr %24, align 4
  %103 = add nsw i32 %102, 1
  %104 = sext i32 %103 to i64
  %105 = getelementptr inbounds i16, ptr %101, i64 %104
  %106 = load i16, ptr %105, align 2
  %107 = zext i16 %106 to i32
  %108 = load i32, ptr %25, align 4
  %109 = mul nsw i32 %107, %108
  %110 = add nsw i32 %100, %109
  store i32 %110, ptr %26, align 4
  %111 = load i32, ptr %26, align 4
  %112 = add nsw i32 %111, 16
  %113 = ashr i32 %112, 5
  %114 = trunc i32 %113 to i16
  %115 = load ptr, ptr %11, align 8
  %116 = load i32, ptr %22, align 4
  %117 = sext i32 %116 to i64
  %118 = getelementptr inbounds i16, ptr %115, i64 %117
  store i16 %114, ptr %118, align 2
  br label %129

119:                                              ; preds = %87
  %120 = load ptr, ptr %15, align 8
  %121 = load i32, ptr %27, align 4
  %122 = sext i32 %121 to i64
  %123 = getelementptr inbounds i16, ptr %120, i64 %122
  %124 = load i16, ptr %123, align 2
  %125 = load ptr, ptr %11, align 8
  %126 = load i32, ptr %22, align 4
  %127 = sext i32 %126 to i64
  %128 = getelementptr inbounds i16, ptr %125, i64 %127
  store i16 %124, ptr %128, align 2
  br label %129

129:                                              ; preds = %119, %91
  br label %130

130:                                              ; preds = %129
  %131 = load i32, ptr %22, align 4
  %132 = add nsw i32 %131, 1
  store i32 %132, ptr %22, align 4
  %133 = load i32, ptr %29, align 4
  %134 = load i32, ptr %24, align 4
  %135 = add nsw i32 %134, %133
  store i32 %135, ptr %24, align 4
  br label %83, !llvm.loop !14

136:                                              ; preds = %83
  br label %137

137:                                              ; preds = %136
  %138 = load i32, ptr %21, align 4
  %139 = add nsw i32 %138, 1
  store i32 %139, ptr %21, align 4
  %140 = load i64, ptr %12, align 8
  %141 = load ptr, ptr %11, align 8
  %142 = getelementptr inbounds i16, ptr %141, i64 %140
  store ptr %142, ptr %11, align 8
  %143 = load i32, ptr %18, align 4
  %144 = load i32, ptr %23, align 4
  %145 = add nsw i32 %144, %143
  store i32 %145, ptr %23, align 4
  br label %42, !llvm.loop !15

146:                                              ; preds = %81, %42
  ret void
}