; Function Attrs: nounwind uwtable
define hidden void @av1_highbd_dr_prediction_z1_c(ptr noundef %0, i64 noundef %1, i32 noundef %2, i32 noundef %3, ptr nocapture noundef readonly %4, ptr nocapture noundef readnone %5, i32 noundef %6, i32 noundef %7, i32 noundef %8, i32 noundef %9) local_unnamed_addr #3 {
  %11 = add i32 %2, -1
  %12 = add i32 %11, %3
  %13 = shl i32 %12, %6
  %14 = sub nsw i32 6, %6
  %15 = shl nuw i32 1, %6
  %16 = icmp sgt i32 %3, 0
  br i1 %16, label %.lr.ph67, label %.loopexit

.lr.ph67:                                         ; preds = %10
  %17 = icmp sgt i32 %2, 0
  %18 = sext i32 %13 to i64
  %19 = getelementptr inbounds i16, ptr %4, i64 %18
  br i1 %17, label %.lr.ph67.split.us.preheader, label %.lr.ph67.split

.lr.ph67.split.us.preheader:                      ; preds = %.lr.ph67
  %20 = sext i32 %15 to i64
  %wide.trip.count = zext nneg i32 %2 to i64
  br label %.lr.ph67.split.us

.lr.ph67.split.us:                                ; preds = %.lr.ph67.split.us.preheader, %._crit_edge.us
  %.04865.us = phi ptr [ %47, %._crit_edge.us ], [ %0, %.lr.ph67.split.us.preheader ]
  %.04964.us = phi i32 [ %46, %._crit_edge.us ], [ 0, %.lr.ph67.split.us.preheader ]
  %.05163.us = phi i32 [ %48, %._crit_edge.us ], [ %7, %.lr.ph67.split.us.preheader ]
  %21 = ashr i32 %.05163.us, %14
  %22 = shl i32 %.05163.us, %6
  %23 = lshr i32 %22, 1
  %24 = and i32 %23, 31
  %.not.us = icmp slt i32 %21, %13
  br i1 %.not.us, label %.preheader57.us, label %.preheader

25:                                               ; preds = %.preheader57.us, %42
  %indvars.iv78 = phi i64 [ %45, %.preheader57.us ], [ %indvars.iv.next79, %42 ]
  %indvars.iv = phi i64 [ 0, %.preheader57.us ], [ %indvars.iv.next, %42 ]
  %26 = icmp slt i64 %indvars.iv78, %18
  br i1 %26, label %29, label %27

27:                                               ; preds = %25
  %28 = load i16, ptr %19, align 2
  br label %42

29:                                               ; preds = %25
  %30 = getelementptr inbounds i16, ptr %4, i64 %indvars.iv78
  %31 = load i16, ptr %30, align 2
  %32 = zext i16 %31 to i32
  %33 = mul nuw nsw i32 %44, %32
  %34 = getelementptr i8, ptr %30, i64 2
  %35 = load i16, ptr %34, align 2
  %36 = zext i16 %35 to i32
  %37 = mul nuw nsw i32 %24, %36
  %38 = add nuw nsw i32 %33, 16
  %39 = add nuw nsw i32 %38, %37
  %40 = lshr i32 %39, 5
  %41 = trunc i32 %40 to i16
  br label %42

42:                                               ; preds = %29, %27
  %.sink = phi i16 [ %41, %29 ], [ %28, %27 ]
  %43 = getelementptr inbounds i16, ptr %.04865.us, i64 %indvars.iv
  store i16 %.sink, ptr %43, align 2
  %indvars.iv.next = add nuw nsw i64 %indvars.iv, 1
  %indvars.iv.next79 = add nsw i64 %indvars.iv78, %20
  %exitcond83.not = icmp eq i64 %indvars.iv.next, %wide.trip.count
  br i1 %exitcond83.not, label %._crit_edge.us, label %25, !llvm.loop !13

.preheader57.us:                                  ; preds = %.lr.ph67.split.us
  %44 = sub nuw nsw i32 32, %24
  %45 = sext i32 %21 to i64
  br label %25

._crit_edge.us:                                   ; preds = %42
  %46 = add nuw nsw i32 %.04964.us, 1
  %47 = getelementptr inbounds i16, ptr %.04865.us, i64 %1
  %48 = add nsw i32 %.05163.us, %7
  %exitcond84.not = icmp eq i32 %46, %3
  br i1 %exitcond84.not, label %.loopexit, label %.lr.ph67.split.us, !llvm.loop !14

.lr.ph67.split:                                   ; preds = %.lr.ph67, %.preheader57
  %.04865 = phi ptr [ %51, %.preheader57 ], [ %0, %.lr.ph67 ]
  %.04964 = phi i32 [ %50, %.preheader57 ], [ 0, %.lr.ph67 ]
  %.05163 = phi i32 [ %52, %.preheader57 ], [ %7, %.lr.ph67 ]
  %49 = ashr i32 %.05163, %14
  %.not = icmp slt i32 %49, %13
  br i1 %.not, label %.preheader57, label %.preheader

.preheader57:                                     ; preds = %.lr.ph67.split
  %50 = add nuw nsw i32 %.04964, 1
  %51 = getelementptr inbounds i16, ptr %.04865, i64 %1
  %52 = add nsw i32 %.05163, %7
  %exitcond.not = icmp eq i32 %50, %3
  br i1 %exitcond.not, label %.loopexit, label %.lr.ph67.split, !llvm.loop !14

.preheader:                                       ; preds = %.lr.ph67.split, %.lr.ph67.split.us
  %.us-phi = phi i32 [ %.04964.us, %.lr.ph67.split.us ], [ %.04964, %.lr.ph67.split ]
  %.us-phi68 = phi ptr [ %.04865.us, %.lr.ph67.split.us ], [ %.04865, %.lr.ph67.split ]
  %53 = icmp slt i32 %.us-phi, %3
  br i1 %53, label %.lr.ph, label %.loopexit

.lr.ph:                                           ; preds = %.preheader
  %54 = sext i32 %2 to i64
  br label %55

55:                                               ; preds = %.lr.ph, %55
  %.070 = phi i32 [ %.us-phi, %.lr.ph ], [ %60, %55 ]
  %.169 = phi ptr [ %.us-phi68, %.lr.ph ], [ %59, %55 ]
  %56 = load i16, ptr %19, align 2
  %57 = zext i16 %56 to i32
  %58 = tail call ptr @aom_memset16(ptr noundef %.169, i32 noundef %57, i64 noundef %54) #11
  %59 = getelementptr inbounds i16, ptr %.169, i64 %1
  %60 = add nuw i32 %.070, 1
  %exitcond85.not = icmp eq i32 %60, %3
  br i1 %exitcond85.not, label %.loopexit, label %55, !llvm.loop !15

.loopexit:                                        ; preds = %.preheader57, %._crit_edge.us, %55, %10, %.preheader
  ret void
}